; Function Attrs: nounwind uwtable
define hidden void @zim_DateTimeImmutable_createFromMutable(ptr noundef %0, ptr noundef %1) #0 {
  %3 = getelementptr inbounds i8, ptr %0, i64 32
  %4 = getelementptr inbounds i8, ptr %0, i64 44
  %5 = load i32, ptr %4, align 4
  %cond = icmp eq i32 %5, 1
  br i1 %cond, label %7, label %6

6:                                                ; preds = %2
  tail call void @zend_wrong_parameters_count_error(i32 noundef 1, i32 noundef 1) #25
  br label %26

7:                                                ; preds = %2
  %8 = getelementptr inbounds i8, ptr %0, i64 80
  %9 = load ptr, ptr @date_ce_date, align 8
  %10 = getelementptr inbounds i8, ptr %0, i64 88
  %11 = load i8, ptr %10, align 8
  %12 = icmp eq i8 %11, 8
  br i1 %12, label %13, label %20

13:                                               ; preds = %7
  %.not64 = icmp eq ptr %9, null
  %.pre85 = load ptr, ptr %8, align 8
  br i1 %.not64, label %27, label %14

14:                                               ; preds = %13
  %15 = getelementptr inbounds i8, ptr %.pre85, i64 16
  %16 = load ptr, ptr %15, align 8
  %17 = icmp eq ptr %16, %9
  br i1 %17, label %27, label %18

18:                                               ; preds = %14
  %19 = tail call zeroext i1 @instanceof_function_slow(ptr noundef %16, ptr noundef nonnull %9) #25
  br i1 %19, label %._crit_edge, label %thread-pre-split

._crit_edge:                                      ; preds = %18
  %.pre = load ptr, ptr %8, align 8
  br label %27

thread-pre-split:                                 ; preds = %18
  %.pr = load ptr, ptr @date_ce_date, align 8
  br label %20

20:                                               ; preds = %thread-pre-split, %7
  %21 = phi ptr [ %.pr, %thread-pre-split ], [ %9, %7 ]
  %.not65 = icmp eq ptr %21, null
  br i1 %.not65, label %26, label %22

22:                                               ; preds = %20
  %23 = getelementptr inbounds i8, ptr %21, i64 8
  %24 = load ptr, ptr %23, align 8
  %25 = getelementptr inbounds i8, ptr %24, i64 24
  br label %26

26:                                               ; preds = %6, %22, %20
  %.056 = phi i32 [ 0, %6 ], [ 1, %22 ], [ 1, %20 ]
  %.055 = phi ptr [ null, %6 ], [ %8, %22 ], [ %8, %20 ]
  %.054 = phi i32 [ 0, %6 ], [ 0, %22 ], [ 18, %20 ]
  %.053 = phi ptr [ null, %6 ], [ %25, %22 ], [ null, %20 ]
  %.0 = phi i32 [ 1, %6 ], [ 3, %22 ], [ 9, %20 ]
  tail call void @zend_wrong_parameter_error(i32 noundef %.0, i32 noundef %.056, ptr noundef %.053, i32 noundef %.054, ptr noundef %.055) #25
  br label %68

27:                                               ; preds = %._crit_edge, %14, %13
  %28 = phi ptr [ %.pre, %._crit_edge ], [ %.pre85, %14 ], [ %.pre85, %13 ]
  %29 = getelementptr inbounds i8, ptr %28, i64 -8
  %30 = load ptr, ptr %29, align 8
  %.not67 = icmp eq ptr %30, null
  br i1 %.not67, label %31, label %59

31:                                               ; preds = %27
  %32 = getelementptr inbounds i8, ptr %28, i64 16
  %33 = load ptr, ptr %32, align 8
  %34 = load i8, ptr %33, align 8
  %35 = icmp eq i8 %34, 1
  br i1 %35, label %36, label %.preheader.i

36:                                               ; preds = %31
  %37 = load ptr, ptr @date_ce_date_object_error, align 8
  %38 = getelementptr inbounds i8, ptr %33, i64 8
  %39 = load ptr, ptr %38, align 8
  %40 = getelementptr inbounds i8, ptr %39, i64 24
  tail call void (ptr, ptr, ...) @zend_throw_error(ptr noundef %37, ptr noundef nonnull @.str.383, ptr noundef nonnull %40) #25
  br label %date_throw_uninitialized_error.exit

.preheader.i:                                     ; preds = %31, %.preheader.i
  %.0.i = phi ptr [ %42, %.preheader.i ], [ %33, %31 ]
  %41 = getelementptr inbounds i8, ptr %.0.i, i64 16
  %42 = load ptr, ptr %41, align 8
  %.not.i = icmp ne ptr %42, null
  %.pr.i = load i8, ptr %.0.i, align 8
  %43 = icmp eq i8 %.pr.i, 2
  %or.cond = select i1 %.not.i, i1 %43, i1 false
  br i1 %or.cond, label %.preheader.i, label %.critedge.i

.critedge.i:                                      ; preds = %.preheader.i
  %.not12.i = icmp eq i8 %.pr.i, 1
  br i1 %.not12.i, label %49, label %44

44:                                               ; preds = %.critedge.i
  %45 = load ptr, ptr @date_ce_date_object_error, align 8
  %46 = getelementptr inbounds i8, ptr %33, i64 8
  %47 = load ptr, ptr %46, align 8
  %48 = getelementptr inbounds i8, ptr %47, i64 24
  tail call void (ptr, ptr, ...) @zend_throw_error(ptr noundef %45, ptr noundef nonnull @.str.384, ptr noundef nonnull %48) #25
  br label %49

49:                                               ; preds = %44, %.critedge.i
  %50 = load ptr, ptr @date_ce_date_object_error, align 8
  %51 = getelementptr inbounds i8, ptr %33, i64 8
  %52 = load ptr, ptr %51, align 8
  %53 = getelementptr inbounds i8, ptr %52, i64 24
  %54 = getelementptr inbounds i8, ptr %.0.i, i64 8
  %55 = load ptr, ptr %54, align 8
  %56 = getelementptr inbounds i8, ptr %55, i64 24
  tail call void (ptr, ptr, ...) @zend_throw_error(ptr noundef %50, ptr noundef nonnull @.str.385, ptr noundef nonnull %53, ptr noundef nonnull %56) #25
  br label %date_throw_uninitialized_error.exit

date_throw_uninitialized_error.exit:              ; preds = %36, %49
  %57 = load ptr, ptr getelementptr inbounds (%struct._zend_executor_globals, ptr @executor_globals, i64 0, i32 50), align 8
  %58 = icmp ne ptr %57, null
  tail call void @llvm.assume(i1 %58)
  br label %68

59:                                               ; preds = %27
  %60 = load ptr, ptr %3, align 8
  %.not68 = icmp eq ptr %60, null
  %61 = load ptr, ptr @date_ce_immutable, align 8
  %62 = select i1 %.not68, ptr %61, ptr %60
  %63 = tail call i32 @object_init_ex(ptr noundef %1, ptr noundef %62) #25
  %64 = load ptr, ptr %1, align 8
  %65 = getelementptr inbounds i8, ptr %64, i64 -8
  %66 = load ptr, ptr %29, align 8
  %67 = tail call ptr @timelib_time_clone(ptr noundef %66) #25
  store ptr %67, ptr %65, align 8
  br label %68

68:                                               ; preds = %59, %date_throw_uninitialized_error.exit, %26
  ret void
}